target datalayout = "e-m:e-p270:32:32-p271:32:32-p272:64:64-i64:64-i128:128-f80:128-n8:16:32:64-S128"
target triple = "x86_64-pc-linux-gnu"

%struct.stat = type { i64, i64, i64, i32, i32, i32, i32, i64, i64, i64, i64, %struct.timespec, %struct.timespec, %struct.timespec, [3 x i64] }
%struct.timespec = type { i64, i64 }

@local_test_path = internal global ptr null, align 8
@.str = private unnamed_addr constant [39 x i8] c"../qemu/tests/qtest/libqos/virtio-9p.c\00", align 1
@__func__.virtio_9p_create_local_test_dir = private unnamed_addr constant [32 x i8] c"virtio_9p_create_local_test_dir\00", align 1
@.str.1 = private unnamed_addr constant [24 x i8] c"local_test_path == NULL\00", align 1
@.str.2 = private unnamed_addr constant [22 x i8] c"qtest-9p-local-XXXXXX\00", align 1
@.str.3 = private unnamed_addr constant [27 x i8] c"g_mkdtemp('%s') failed: %s\00", align 1
@.str.4 = private unnamed_addr constant [24 x i8] c"local_test_path != NULL\00", align 1
@.str.5 = private unnamed_addr constant [32 x i8] c"stat(local_test_path, &st) == 0\00", align 1
@.str.6 = private unnamed_addr constant [33 x i8] c"(st.st_mode & S_IFMT) == S_IFDIR\00", align 1

; Function Attrs: inlinehint nounwind sspstrong uwtable
define internal void @g_autoptr_cleanup_generic_gfree(ptr noundef %0) #6 {
  %2 = alloca ptr, align 8
  %3 = alloca ptr, align 8
  store ptr %0, ptr %2, align 8
  call void @llvm.lifetime.start.p0(i64 8, ptr %3) #14
  %4 = load ptr, ptr %2, align 8
  store ptr %4, ptr %3, align 8
  %5 = load ptr, ptr %3, align 8
  %6 = load ptr, ptr %5, align 8
  call void @g_free(ptr noundef %6)
  call void @llvm.lifetime.end.p0(i64 8, ptr %3) #14
  ret void
}

; Function Attrs: nounwind sspstrong uwtable
define internal ptr @concat_path(ptr noundef %0, ptr noundef %1) #0 {
  %3 = alloca ptr, align 8
  %4 = alloca ptr, align 8
  store ptr %0, ptr %3, align 8
  store ptr %1, ptr %4, align 8
  %5 = load ptr, ptr %3, align 8
  %6 = load ptr, ptr %4, align 8
  %7 = call noalias ptr (ptr, ...) @g_build_filename(ptr noundef %5, ptr noundef %6, ptr noundef null)
  ret ptr %7
}

; Function Attrs: nounwind sspstrong uwtable
define dso_local void @virtio_9p_create_local_test_dir() #0 {
  %1 = alloca i32, align 4
  %2 = alloca i32, align 4
  %3 = alloca %struct.stat, align 8
  %4 = alloca ptr, align 8
  %5 = alloca ptr, align 8
  %6 = alloca i32, align 4
  %7 = alloca i32, align 4
  %8 = alloca i32, align 4
  %9 = alloca i32, align 4
  %10 = alloca i32, align 4
  %11 = alloca i32, align 4
  br label %12

12:                                               ; preds = %0
  call void @llvm.lifetime.start.p0(i64 4, ptr %1) #14
  store i32 0, ptr %1, align 4, !annotation !4
  %13 = load ptr, ptr @local_test_path, align 8
  %14 = icmp eq ptr %13, null
  br i1 %14, label %15, label %16

15:                                               ; preds = %12
  store i32 1, ptr %1, align 4
  br label %17

16:                                               ; preds = %12
  store i32 0, ptr %1, align 4
  br label %17

17:                                               ; preds = %16, %15
  %18 = load i32, ptr %1, align 4
  store i32 %18, ptr %2, align 4
  call void @llvm.lifetime.end.p0(i64 4, ptr %1) #14
  %19 = load i32, ptr %2, align 4
  %20 = sext i32 %19 to i64
  %21 = call i64 @llvm.expect.i64(i64 %20, i64 1)
  %22 = icmp ne i64 %21, 0
  br i1 %22, label %23, label %24

23:                                               ; preds = %17
  br label %25

24:                                               ; preds = %17
  call void @g_assertion_message_expr(ptr noundef null, ptr noundef @.str, i32 noundef 42, ptr noundef @__func__.virtio_9p_create_local_test_dir, ptr noundef @.str.1) #15
  unreachable

25:                                               ; preds = %23
  br label %26

26:                                               ; preds = %25
  call void @llvm.lifetime.start.p0(i64 144, ptr %3) #14
  call void @llvm.memset.p0.i64(ptr align 8 %3, i8 0, i64 144, i1 false), !annotation !4
  call void @llvm.lifetime.start.p0(i64 8, ptr %4) #14
  %27 = call ptr @g_get_current_dir()
  store ptr %27, ptr %4, align 8
  call void @llvm.lifetime.start.p0(i64 8, ptr %5) #14
  %28 = load ptr, ptr %4, align 8
  %29 = call ptr @concat_path(ptr noundef %28, ptr noundef @.str.2)
  store ptr %29, ptr %5, align 8
  %30 = load ptr, ptr %5, align 8
  %31 = call ptr @g_mkdtemp(ptr noundef %30)
  store ptr %31, ptr @local_test_path, align 8
  %32 = load ptr, ptr @local_test_path, align 8
  %33 = icmp ne ptr %32, null
  br i1 %33, label %39, label %34

34:                                               ; preds = %26
  %35 = load ptr, ptr %5, align 8
  %36 = call ptr @__errno_location() #16
  %37 = load i32, ptr %36, align 4
  %38 = call ptr @strerror(i32 noundef %37) #14
  call void (ptr, ...) @g_test_message(ptr noundef @.str.3, ptr noundef %35, ptr noundef %38)
  br label %39

39:                                               ; preds = %34, %26
  br label %40

40:                                               ; preds = %39
  call void @llvm.lifetime.start.p0(i64 4, ptr %6) #14
  store i32 0, ptr %6, align 4, !annotation !4
  %41 = load ptr, ptr @local_test_path, align 8
  %42 = icmp ne ptr %41, null
  br i1 %42, label %43, label %44

43:                                               ; preds = %40
  store i32 1, ptr %6, align 4
  br label %45

44:                                               ; preds = %40
  store i32 0, ptr %6, align 4
  br label %45

45:                                               ; preds = %44, %43
  %46 = load i32, ptr %6, align 4
  store i32 %46, ptr %7, align 4
  call void @llvm.lifetime.end.p0(i64 4, ptr %6) #14
  %47 = load i32, ptr %7, align 4
  %48 = sext i32 %47 to i64
  %49 = call i64 @llvm.expect.i64(i64 %48, i64 1)
  %50 = icmp ne i64 %49, 0
  br i1 %50, label %51, label %52

51:                                               ; preds = %45
  br label %53

52:                                               ; preds = %45
  call void @g_assertion_message_expr(ptr noundef null, ptr noundef @.str, i32 noundef 56, ptr noundef @__func__.virtio_9p_create_local_test_dir, ptr noundef @.str.4) #15
  unreachable

53:                                               ; preds = %51
  br label %54

54:                                               ; preds = %53
  br label %55

55:                                               ; preds = %54
  br label %56

56:                                               ; preds = %55
  call void @llvm.lifetime.start.p0(i64 4, ptr %8) #14
  store i32 0, ptr %8, align 4, !annotation !4
  %57 = load ptr, ptr @local_test_path, align 8
  %58 = call i32 @stat64(ptr noundef %57, ptr noundef %3) #14
  %59 = icmp eq i32 %58, 0
  br i1 %59, label %60, label %61

60:                                               ; preds = %56
  store i32 1, ptr %8, align 4
  br label %62

61:                                               ; preds = %56
  store i32 0, ptr %8, align 4
  br label %62

62:                                               ; preds = %61, %60
  %63 = load i32, ptr %8, align 4
  store i32 %63, ptr %9, align 4
  call void @llvm.lifetime.end.p0(i64 4, ptr %8) #14
  %64 = load i32, ptr %9, align 4
  %65 = sext i32 %64 to i64
  %66 = call i64 @llvm.expect.i64(i64 %65, i64 1)
  %67 = icmp ne i64 %66, 0
  br i1 %67, label %68, label %69

68:                                               ; preds = %62
  br label %70

69:                                               ; preds = %62
  call void @g_assertion_message_expr(ptr noundef null, ptr noundef @.str, i32 noundef 59, ptr noundef @__func__.virtio_9p_create_local_test_dir, ptr noundef @.str.5) #15
  unreachable

70:                                               ; preds = %68
  br label %71

71:                                               ; preds = %70
  br label %72

72:                                               ; preds = %71
  br label %73

73:                                               ; preds = %72
  call void @llvm.lifetime.start.p0(i64 4, ptr %10) #14
  store i32 0, ptr %10, align 4, !annotation !4
  %74 = getelementptr inbounds nuw %struct.stat, ptr %3, i32 0, i32 3
  %75 = load i32, ptr %74, align 8
  %76 = and i32 %75, 61440
  %77 = icmp eq i32 %76, 16384
  br i1 %77, label %78, label %79

78:                                               ; preds = %73
  store i32 1, ptr %10, align 4
  br label %80

79:                                               ; preds = %73
  store i32 0, ptr %10, align 4
  br label %80

80:                                               ; preds = %79, %78
  %81 = load i32, ptr %10, align 4
  store i32 %81, ptr %11, align 4
  call void @llvm.lifetime.end.p0(i64 4, ptr %10) #14
  %82 = load i32, ptr %11, align 4
  %83 = sext i32 %82 to i64
  %84 = call i64 @llvm.expect.i64(i64 %83, i64 1)
  %85 = icmp ne i64 %84, 0
  br i1 %85, label %86, label %87

86:                                               ; preds = %80
  br label %88

87:                                               ; preds = %80
  call void @g_assertion_message_expr(ptr noundef null, ptr noundef @.str, i32 noundef 61, ptr noundef @__func__.virtio_9p_create_local_test_dir, ptr noundef @.str.6) #15
  unreachable

88:                                               ; preds = %86
  br label %89

89:                                               ; preds = %88
  br label %90

90:                                               ; preds = %89
  call void @llvm.lifetime.end.p0(i64 8, ptr %5) #14
  call void @g_autoptr_cleanup_generic_gfree(ptr noundef %4)
  call void @llvm.lifetime.end.p0(i64 8, ptr %4) #14
  call void @llvm.lifetime.end.p0(i64 144, ptr %3) #14
  ret void
}