; Function Attrs: nounwind sspstrong uwtable
define dso_local void @virtio_9p_create_local_test_dir() local_unnamed_addr #0 {
  %1 = alloca %struct.stat, align 8
  %2 = load ptr, ptr @local_test_path, align 8
  %.not = icmp eq ptr %2, null
  br i1 %.not, label %4, label %3, !prof !4

3:                                                ; preds = %0
  tail call void @g_assertion_message_expr(ptr noundef null, ptr noundef nonnull @.str, i32 noundef 42, ptr noundef nonnull @__func__.virtio_9p_create_local_test_dir, ptr noundef nonnull @.str.1) #12
  unreachable

4:                                                ; preds = %0
  call void @llvm.lifetime.start.p0(i64 144, ptr nonnull %1) #13
  call void @llvm.memset.p0.i64(ptr noundef nonnull align 8 dereferenceable(144) %1, i8 0, i64 144, i1 false), !annotation !5
  %5 = tail call ptr @g_get_current_dir() #13
  %6 = tail call noalias ptr (ptr, ...) @g_build_filename(ptr noundef %5, ptr noundef nonnull @.str.2, ptr noundef null) #13
  %7 = tail call ptr @g_mkdtemp(ptr noundef %6) #13
  store ptr %7, ptr @local_test_path, align 8
  %.not12 = icmp eq ptr %7, null
  br i1 %.not12, label %8, label %.thread

8:                                                ; preds = %4
  %9 = tail call ptr @__errno_location() #14
  %10 = load i32, ptr %9, align 4
  %11 = tail call ptr @strerror(i32 noundef %10) #13
  tail call void (ptr, ...) @g_test_message(ptr noundef nonnull @.str.3, ptr noundef %6, ptr noundef %11) #13
  %.pr = load ptr, ptr @local_test_path, align 8
  %.not13 = icmp eq ptr %.pr, null
  br i1 %.not13, label %12, label %.thread, !prof !6

12:                                               ; preds = %8
  tail call void @g_assertion_message_expr(ptr noundef null, ptr noundef nonnull @.str, i32 noundef 56, ptr noundef nonnull @__func__.virtio_9p_create_local_test_dir, ptr noundef nonnull @.str.4) #12
  unreachable

.thread:                                          ; preds = %4, %8
  %13 = phi ptr [ %.pr, %8 ], [ %7, %4 ]
  %14 = call i32 @stat64(ptr noundef nonnull %13, ptr noundef nonnull %1) #13
  %.not16 = icmp eq i32 %14, 0
  br i1 %.not16, label %16, label %15, !prof !4

15:                                               ; preds = %.thread
  tail call void @g_assertion_message_expr(ptr noundef null, ptr noundef nonnull @.str, i32 noundef 59, ptr noundef nonnull @__func__.virtio_9p_create_local_test_dir, ptr noundef nonnull @.str.5) #12
  unreachable

16:                                               ; preds = %.thread
  %17 = getelementptr inbounds nuw i8, ptr %1, i64 24
  %18 = load i32, ptr %17, align 8
  %19 = and i32 %18, 61440
  %.not18 = icmp eq i32 %19, 16384
  br i1 %.not18, label %21, label %20, !prof !4

20:                                               ; preds = %16
  tail call void @g_assertion_message_expr(ptr noundef null, ptr noundef nonnull @.str, i32 noundef 61, ptr noundef nonnull @__func__.virtio_9p_create_local_test_dir, ptr noundef nonnull @.str.6) #12
  unreachable

21:                                               ; preds = %16
  tail call void @g_free(ptr noundef %5) #13
  call void @llvm.lifetime.end.p0(i64 144, ptr nonnull %1) #13
  ret void
}